; Function Attrs: mustprogress nounwind uwtable
define dso_local noundef ptr @_ZN4llvm9DIBuilder16createStringTypeENS_9StringRefEm(ptr nocapture noundef nonnull readonly align 8 dereferenceable(416) %0, ptr %1, i64 %2, i64 noundef %3) local_unnamed_addr #0 align 2 {
  %5 = getelementptr inbounds nuw i8, ptr %0, i64 8
  %6 = load ptr, ptr %5, align 8
  %7 = icmp eq i64 %2, 0
  br i1 %7, label %_ZN4llvm12DIStringType3getERNS_11LLVMContextEjNS_9StringRefEmj.exit, label %8

8:                                                ; preds = %4
  %9 = tail call noundef ptr @_ZN4llvm8MDString3getERNS_11LLVMContextENS_9StringRefE(ptr noundef nonnull align 8 dereferenceable(8) %6, ptr %1, i64 %2) #13
  br label %_ZN4llvm12DIStringType3getERNS_11LLVMContextEjNS_9StringRefEmj.exit

_ZN4llvm12DIStringType3getERNS_11LLVMContextEjNS_9StringRefEmj.exit: ; preds = %4, %8
  %.0.i.i.i = phi ptr [ %9, %8 ], [ null, %4 ]
  %10 = tail call noundef ptr @_ZN4llvm12DIStringType7getImplERNS_11LLVMContextEjPNS_8MDStringEPNS_8MetadataES6_S6_mjjNS5_11StorageTypeEb(ptr noundef nonnull align 8 dereferenceable(8) %6, i32 noundef 18, ptr noundef %.0.i.i.i, ptr noundef null, ptr noundef null, ptr noundef null, i64 noundef %3, i32 noundef 0, i32 noundef 0, i32 noundef 0, i1 noundef zeroext true) #13
  ret ptr %10
}